target datalayout = "e-m:e-p270:32:32-p271:32:32-p272:64:64-i64:64-i128:128-f80:128-n8:16:32:64-S128"
target triple = "x86_64-pc-linux-gnu"

@ecpg_hex_encode.hextbl = internal constant [17 x i8] c"0123456789abcdef\00", align 16

; Function Attrs: nounwind uwtable
define i32 @ecpg_hex_encode(ptr noundef %0, i32 noundef %1, ptr noundef %2) #0 {
  %4 = alloca ptr, align 8
  %5 = alloca i32, align 4
  %6 = alloca ptr, align 8
  %7 = alloca ptr, align 8
  store ptr %0, ptr %4, align 8
  store i32 %1, ptr %5, align 4
  store ptr %2, ptr %6, align 8
  call void @llvm.lifetime.start.p0(i64 8, ptr %7) #8
  %8 = load ptr, ptr %4, align 8
  %9 = load i32, ptr %5, align 4
  %10 = zext i32 %9 to i64
  %11 = getelementptr inbounds nuw i8, ptr %8, i64 %10
  store ptr %11, ptr %7, align 8
  br label %12

12:                                               ; preds = %16, %3
  %13 = load ptr, ptr %4, align 8
  %14 = load ptr, ptr %7, align 8
  %15 = icmp ult ptr %13, %14
  br i1 %15, label %16, label %38

16:                                               ; preds = %12
  %17 = load ptr, ptr %4, align 8
  %18 = load i8, ptr %17, align 1
  %19 = sext i8 %18 to i32
  %20 = ashr i32 %19, 4
  %21 = and i32 %20, 15
  %22 = sext i32 %21 to i64
  %23 = getelementptr inbounds [17 x i8], ptr @ecpg_hex_encode.hextbl, i64 0, i64 %22
  %24 = load i8, ptr %23, align 1
  %25 = load ptr, ptr %6, align 8
  %26 = getelementptr inbounds nuw i8, ptr %25, i32 1
  store ptr %26, ptr %6, align 8
  store i8 %24, ptr %25, align 1
  %27 = load ptr, ptr %4, align 8
  %28 = load i8, ptr %27, align 1
  %29 = sext i8 %28 to i32
  %30 = and i32 %29, 15
  %31 = sext i32 %30 to i64
  %32 = getelementptr inbounds [17 x i8], ptr @ecpg_hex_encode.hextbl, i64 0, i64 %31
  %33 = load i8, ptr %32, align 1
  %34 = load ptr, ptr %6, align 8
  %35 = getelementptr inbounds nuw i8, ptr %34, i32 1
  store ptr %35, ptr %6, align 8
  store i8 %33, ptr %34, align 1
  %36 = load ptr, ptr %4, align 8
  %37 = getelementptr inbounds nuw i8, ptr %36, i32 1
  store ptr %37, ptr %4, align 8
  br label %12, !llvm.loop !3

38:                                               ; preds = %12
  %39 = load i32, ptr %5, align 4
  %40 = mul i32 %39, 2
  call void @llvm.lifetime.end.p0(i64 8, ptr %7) #8
  ret i32 %40
}