; Function Attrs: nofree norecurse nosync nounwind memory(argmem: readwrite) uwtable
define noundef range(i32 0, -1) i32 @ecpg_hex_encode(ptr noundef readonly captures(address) %0, i32 noundef %1, ptr noundef writeonly captures(none) %2) local_unnamed_addr #1 {
  %4 = zext i32 %1 to i64
  %5 = getelementptr inbounds nuw i8, ptr %0, i64 %4
  %.not = icmp eq i32 %1, 0
  br i1 %.not, label %._crit_edge, label %.lr.ph

.lr.ph:                                           ; preds = %3, %.lr.ph
  %.011 = phi ptr [ %18, %.lr.ph ], [ %0, %3 ]
  %.0910 = phi ptr [ %17, %.lr.ph ], [ %2, %3 ]
  %6 = load i8, ptr %.011, align 1
  %7 = lshr i8 %6, 4
  %8 = zext nneg i8 %7 to i64
  %9 = getelementptr inbounds nuw [17 x i8], ptr @ecpg_hex_encode.hextbl, i64 0, i64 %8
  %10 = load i8, ptr %9, align 1
  %11 = getelementptr inbounds nuw i8, ptr %.0910, i64 1
  store i8 %10, ptr %.0910, align 1
  %12 = load i8, ptr %.011, align 1
  %13 = and i8 %12, 15
  %14 = zext nneg i8 %13 to i64
  %15 = getelementptr inbounds nuw [17 x i8], ptr @ecpg_hex_encode.hextbl, i64 0, i64 %14
  %16 = load i8, ptr %15, align 1
  %17 = getelementptr inbounds nuw i8, ptr %.0910, i64 2
  store i8 %16, ptr %11, align 1
  %18 = getelementptr inbounds nuw i8, ptr %.011, i64 1
  %19 = icmp ult ptr %18, %5
  br i1 %19, label %.lr.ph, label %._crit_edge, !llvm.loop !3

._crit_edge:                                      ; preds = %.lr.ph, %3
  %20 = shl i32 %1, 1
  ret i32 %20
}